#include <math.h>
#include <stdio.h>
#include <stdlib.h>
#include <string.h>

int main()
{
	int a[300],b[1000]={0};
	int n,i,j;
	j=0;
	scanf("%d",&n);
	for(i=0;i<n;i++)
	{
		scanf("%d",&a[i]);
	}
	for(i=0;i<n;i++)
	{
		if(b[a[i]]==0)
		{
			b[a[i]]=1;
		}
		else
		{
			a[i]=10000;
		}
	}
	for(i=0;i<n;i++)
	{
		if(a[i]!=10000)
		{
			j++;
			if(j==1)
			{
				printf("%d",a[i]);
			}
			else
			{
				printf(",%d",a[i]);
			}
		}
	}
	return 0;
}

